target datalayout = "e-m:e-p270:32:32-p271:32:32-p272:64:64-i64:64-i128:128-f80:128-n8:16:32:64-S128"
target triple = "x86_64-pc-linux-gnu"

%"class.Ipopt::Journalist" = type { %"class.Ipopt::ReferencedObject.base", %"class.std::vector" }
%"class.Ipopt::ReferencedObject.base" = type <{ ptr, i32 }>
%"class.std::vector" = type { %"struct.std::_Vector_base" }
%"struct.std::_Vector_base" = type { %"struct.std::_Vector_base<Ipopt::SmartPtr<Ipopt::Journal>, std::allocator<Ipopt::SmartPtr<Ipopt::Journal>>>::_Vector_impl" }
%"struct.std::_Vector_base<Ipopt::SmartPtr<Ipopt::Journal>, std::allocator<Ipopt::SmartPtr<Ipopt::Journal>>>::_Vector_impl" = type { %"struct.std::_Vector_base<Ipopt::SmartPtr<Ipopt::Journal>, std::allocator<Ipopt::SmartPtr<Ipopt::Journal>>>::_Vector_impl_data" }
%"struct.std::_Vector_base<Ipopt::SmartPtr<Ipopt::Journal>, std::allocator<Ipopt::SmartPtr<Ipopt::Journal>>>::_Vector_impl_data" = type { ptr, ptr, ptr }
%struct.__va_list_tag = type { i32, i32, ptr, ptr }
%"class.Ipopt::SmartPtr" = type { ptr }

; Function Attrs: mustprogress nounwind uwtable
define linkonce_odr noundef ptr @_ZNK5Ipopt8SmartPtrINS_7JournalEEptEv(ptr noundef nonnull align 8 dereferenceable(8) %0) #1 comdat align 2 {
  %2 = alloca ptr, align 8
  store ptr %0, ptr %2, align 8
  %3 = load ptr, ptr %2, align 8
  %4 = getelementptr inbounds %"class.Ipopt::SmartPtr", ptr %3, i32 0, i32 0
  %5 = load ptr, ptr %4, align 8
  ret ptr %5
}

; Function Attrs: mustprogress nounwind uwtable
define linkonce_odr noundef nonnull align 8 dereferenceable(8) ptr @_ZNKSt6vectorIN5Ipopt8SmartPtrINS0_7JournalEEESaIS3_EEixEm(ptr noundef nonnull align 8 dereferenceable(24) %0, i64 noundef %1) #1 comdat align 2 {
  %3 = alloca ptr, align 8
  %4 = alloca i64, align 8
  store ptr %0, ptr %3, align 8
  store i64 %1, ptr %4, align 8
  %5 = load ptr, ptr %3, align 8
  %6 = getelementptr inbounds %"struct.std::_Vector_base", ptr %5, i32 0, i32 0
  %7 = getelementptr inbounds %"struct.std::_Vector_base<Ipopt::SmartPtr<Ipopt::Journal>, std::allocator<Ipopt::SmartPtr<Ipopt::Journal>>>::_Vector_impl_data", ptr %6, i32 0, i32 0
  %8 = load ptr, ptr %7, align 8
  %9 = load i64, ptr %4, align 8
  %10 = getelementptr inbounds %"class.Ipopt::SmartPtr", ptr %8, i64 %9
  ret ptr %10
}

; Function Attrs: mustprogress nounwind uwtable
define linkonce_odr noundef i64 @_ZNKSt6vectorIN5Ipopt8SmartPtrINS0_7JournalEEESaIS3_EE4sizeEv(ptr noundef nonnull align 8 dereferenceable(24) %0) #1 comdat align 2 {
  %2 = alloca ptr, align 8
  store ptr %0, ptr %2, align 8
  %3 = load ptr, ptr %2, align 8
  %4 = getelementptr inbounds %"struct.std::_Vector_base", ptr %3, i32 0, i32 0
  %5 = getelementptr inbounds %"struct.std::_Vector_base<Ipopt::SmartPtr<Ipopt::Journal>, std::allocator<Ipopt::SmartPtr<Ipopt::Journal>>>::_Vector_impl_data", ptr %4, i32 0, i32 1
  %6 = load ptr, ptr %5, align 8
  %7 = getelementptr inbounds %"struct.std::_Vector_base", ptr %3, i32 0, i32 0
  %8 = getelementptr inbounds %"struct.std::_Vector_base<Ipopt::SmartPtr<Ipopt::Journal>, std::allocator<Ipopt::SmartPtr<Ipopt::Journal>>>::_Vector_impl_data", ptr %7, i32 0, i32 0
  %9 = load ptr, ptr %8, align 8
  %10 = ptrtoint ptr %6 to i64
  %11 = ptrtoint ptr %9 to i64
  %12 = sub i64 %10, %11
  %13 = sdiv exact i64 %12, 8
  ret i64 %13
}

; Function Attrs: mustprogress uwtable
define void @_ZNK5Ipopt10Journalist7VPrintfENS_13EJournalLevelENS_16EJournalCategoryEPKcP13__va_list_tag(ptr noundef nonnull align 8 dereferenceable(40) %0, i32 noundef %1, i32 noundef %2, ptr noundef %3, ptr noundef %4) unnamed_addr #0 align 2 {
  %6 = alloca ptr, align 8
  %7 = alloca i32, align 4
  %8 = alloca i32, align 4
  %9 = alloca ptr, align 8
  %10 = alloca ptr, align 8
  %11 = alloca i32, align 4
  %12 = alloca [1 x %struct.__va_list_tag], align 16
  store ptr %0, ptr %6, align 8
  store i32 %1, ptr %7, align 4
  store i32 %2, ptr %8, align 4
  store ptr %3, ptr %9, align 8
  store ptr %4, ptr %10, align 8
  %13 = load ptr, ptr %6, align 8
  store i32 0, ptr %11, align 4
  br label %14

14:                                               ; preds = %49, %5
  %15 = load i32, ptr %11, align 4
  %16 = getelementptr inbounds %"class.Ipopt::Journalist", ptr %13, i32 0, i32 1
  %17 = call noundef i64 @_ZNKSt6vectorIN5Ipopt8SmartPtrINS0_7JournalEEESaIS3_EE4sizeEv(ptr noundef nonnull align 8 dereferenceable(24) %16) #11
  %18 = trunc i64 %17 to i32
  %19 = icmp slt i32 %15, %18
  br i1 %19, label %20, label %52

20:                                               ; preds = %14
  %21 = getelementptr inbounds %"class.Ipopt::Journalist", ptr %13, i32 0, i32 1
  %22 = load i32, ptr %11, align 4
  %23 = sext i32 %22 to i64
  %24 = call noundef nonnull align 8 dereferenceable(8) ptr @_ZNKSt6vectorIN5Ipopt8SmartPtrINS0_7JournalEEESaIS3_EEixEm(ptr noundef nonnull align 8 dereferenceable(24) %21, i64 noundef %23) #11
  %25 = call noundef ptr @_ZNK5Ipopt8SmartPtrINS_7JournalEEptEv(ptr noundef nonnull align 8 dereferenceable(8) %24)
  %26 = load i32, ptr %8, align 4
  %27 = load i32, ptr %7, align 4
  %28 = load ptr, ptr %25, align 8
  %29 = getelementptr inbounds ptr, ptr %28, i64 5
  %30 = load ptr, ptr %29, align 8
  %31 = call noundef zeroext i1 %30(ptr noundef nonnull align 8 dereferenceable(176) %25, i32 noundef %26, i32 noundef %27)
  br i1 %31, label %32, label %48

32:                                               ; preds = %20
  %33 = getelementptr inbounds [1 x %struct.__va_list_tag], ptr %12, i64 0, i64 0
  %34 = load ptr, ptr %10, align 8
  call void @llvm.va_copy(ptr %33, ptr %34)
  %35 = getelementptr inbounds %"class.Ipopt::Journalist", ptr %13, i32 0, i32 1
  %36 = load i32, ptr %11, align 4
  %37 = sext i32 %36 to i64
  %38 = call noundef nonnull align 8 dereferenceable(8) ptr @_ZNKSt6vectorIN5Ipopt8SmartPtrINS0_7JournalEEESaIS3_EEixEm(ptr noundef nonnull align 8 dereferenceable(24) %35, i64 noundef %37) #11
  %39 = call noundef ptr @_ZNK5Ipopt8SmartPtrINS_7JournalEEptEv(ptr noundef nonnull align 8 dereferenceable(8) %38)
  %40 = load i32, ptr %8, align 4
  %41 = load i32, ptr %7, align 4
  %42 = load ptr, ptr %9, align 8
  %43 = getelementptr inbounds [1 x %struct.__va_list_tag], ptr %12, i64 0, i64 0
  %44 = load ptr, ptr %39, align 8
  %45 = getelementptr inbounds ptr, ptr %44, i64 7
  %46 = load ptr, ptr %45, align 8
  call void %46(ptr noundef nonnull align 8 dereferenceable(176) %39, i32 noundef %40, i32 noundef %41, ptr noundef %42, ptr noundef %43)
  %47 = getelementptr inbounds [1 x %struct.__va_list_tag], ptr %12, i64 0, i64 0
  call void @llvm.va_end(ptr %47)
  br label %48

48:                                               ; preds = %32, %20
  br label %49

49:                                               ; preds = %48
  %50 = load i32, ptr %11, align 4
  %51 = add nsw i32 %50, 1
  store i32 %51, ptr %11, align 4
  br label %14, !llvm.loop !8

52:                                               ; preds = %14
  ret void
}