; Function Attrs: mustprogress uwtable
define void @_ZNK5Ipopt10Journalist7VPrintfENS_13EJournalLevelENS_16EJournalCategoryEPKcP13__va_list_tag(ptr nocapture noundef nonnull readonly align 8 dereferenceable(40) %0, i32 noundef %1, i32 noundef %2, ptr noundef %3, ptr noundef %4) unnamed_addr #3 align 2 {
  %6 = alloca [1 x %struct.__va_list_tag], align 16
  %7 = getelementptr inbounds i8, ptr %0, i64 16
  %8 = getelementptr inbounds i8, ptr %0, i64 24
  %9 = load ptr, ptr %8, align 8
  %10 = load ptr, ptr %7, align 8
  %11 = ptrtoint ptr %9 to i64
  %12 = ptrtoint ptr %10 to i64
  %13 = sub i64 %11, %12
  %14 = lshr exact i64 %13, 3
  %15 = trunc i64 %14 to i32
  %16 = icmp sgt i32 %15, 0
  br i1 %16, label %.lr.ph, label %._crit_edge

.lr.ph:                                           ; preds = %5, %31
  %indvars.iv = phi i64 [ %indvars.iv.next, %31 ], [ 0, %5 ]
  %17 = phi ptr [ %33, %31 ], [ %10, %5 ]
  %18 = getelementptr inbounds %"class.Ipopt::SmartPtr", ptr %17, i64 %indvars.iv
  %19 = load ptr, ptr %18, align 8
  %20 = load ptr, ptr %19, align 8
  %21 = getelementptr inbounds i8, ptr %20, i64 40
  %22 = load ptr, ptr %21, align 8
  %23 = call noundef zeroext i1 %22(ptr noundef nonnull align 8 dereferenceable(176) %19, i32 noundef %2, i32 noundef %1)
  br i1 %23, label %24, label %31

24:                                               ; preds = %.lr.ph
  call void @llvm.va_copy(ptr nonnull %6, ptr %4)
  %25 = load ptr, ptr %7, align 8
  %26 = getelementptr inbounds %"class.Ipopt::SmartPtr", ptr %25, i64 %indvars.iv
  %27 = load ptr, ptr %26, align 8
  %28 = load ptr, ptr %27, align 8
  %29 = getelementptr inbounds i8, ptr %28, i64 56
  %30 = load ptr, ptr %29, align 8
  call void %30(ptr noundef nonnull align 8 dereferenceable(176) %27, i32 noundef %2, i32 noundef %1, ptr noundef %3, ptr noundef nonnull %6)
  call void @llvm.va_end(ptr nonnull %6)
  br label %31

31:                                               ; preds = %.lr.ph, %24
  %indvars.iv.next = add nuw nsw i64 %indvars.iv, 1
  %32 = load ptr, ptr %8, align 8
  %33 = load ptr, ptr %7, align 8
  %34 = ptrtoint ptr %32 to i64
  %35 = ptrtoint ptr %33 to i64
  %36 = sub i64 %34, %35
  %sext = shl i64 %36, 29
  %37 = ashr i64 %sext, 32
  %38 = icmp slt i64 %indvars.iv.next, %37
  br i1 %38, label %.lr.ph, label %._crit_edge, !llvm.loop !8

._crit_edge:                                      ; preds = %31, %5
  ret void
}